target datalayout = "e-m:e-p270:32:32-p271:32:32-p272:64:64-i64:64-i128:128-f80:128-n8:16:32:64-S128"
target triple = "x86_64-unknown-linux-gnu"

%"class.snappy::ByteArraySource" = type { %"class.snappy::Source", ptr, i64 }
%"class.snappy::Source" = type { ptr }
%"class.snappy::SnappyDecompressionValidator" = type { i64, i64 }

@_ZTVN6snappy15ByteArraySourceE = external unnamed_addr constant { [7 x ptr] }, align 8
@_ZTVN6snappy6SourceE = external unnamed_addr constant { [7 x ptr] }, align 8

; Function Attrs: mustprogress nounwind uwtable
define linkonce_odr dso_local void @_ZN6snappy6SourceC2Ev(ptr noundef nonnull align 8 dereferenceable(8) %this) unnamed_addr #0 comdat align 2 {
entry:
  %this.addr = alloca ptr, align 8
  store ptr %this, ptr %this.addr, align 8
  %this1 = load ptr, ptr %this.addr, align 8
  store ptr getelementptr inbounds ({ [7 x ptr] }, ptr @_ZTVN6snappy6SourceE, i32 0, i32 0, i32 2), ptr %this1, align 8
  ret void
}

; Function Attrs: mustprogress nounwind uwtable
define linkonce_odr dso_local void @_ZN6snappy28SnappyDecompressionValidatorC2Ev(ptr noundef nonnull align 8 dereferenceable(16) %this) unnamed_addr #0 comdat align 2 {
entry:
  %this.addr = alloca ptr, align 8
  store ptr %this, ptr %this.addr, align 8
  %this1 = load ptr, ptr %this.addr, align 8
  %expected_ = getelementptr inbounds %"class.snappy::SnappyDecompressionValidator", ptr %this1, i32 0, i32 0
  store i64 0, ptr %expected_, align 8
  %produced_ = getelementptr inbounds %"class.snappy::SnappyDecompressionValidator", ptr %this1, i32 0, i32 1
  store i64 0, ptr %produced_, align 8
  ret void
}

; Function Attrs: mustprogress nounwind uwtable
define linkonce_odr dso_local void @_ZN6snappy15ByteArraySourceC2EPKcm(ptr noundef nonnull align 8 dereferenceable(24) %this, ptr noundef %p, i64 noundef %n) unnamed_addr #0 comdat align 2 {
entry:
  %this.addr = alloca ptr, align 8
  %p.addr = alloca ptr, align 8
  %n.addr = alloca i64, align 8
  store ptr %this, ptr %this.addr, align 8
  store ptr %p, ptr %p.addr, align 8
  store i64 %n, ptr %n.addr, align 8
  %this1 = load ptr, ptr %this.addr, align 8
  call void @_ZN6snappy6SourceC2Ev(ptr noundef nonnull align 8 dereferenceable(8) %this1)
  store ptr getelementptr inbounds ({ [7 x ptr] }, ptr @_ZTVN6snappy15ByteArraySourceE, i32 0, i32 0, i32 2), ptr %this1, align 8
  %ptr_ = getelementptr inbounds %"class.snappy::ByteArraySource", ptr %this1, i32 0, i32 1
  %0 = load ptr, ptr %p.addr, align 8
  store ptr %0, ptr %ptr_, align 8
  %left_ = getelementptr inbounds %"class.snappy::ByteArraySource", ptr %this1, i32 0, i32 2
  %1 = load i64, ptr %n.addr, align 8
  store i64 %1, ptr %left_, align 8
  ret void
}

; Function Attrs: mustprogress nounwind uwtable
define dso_local noundef zeroext i1 @_ZN6snappy23IsValidCompressedBufferEPKcm(ptr noundef %compressed, i64 noundef %compressed_length) #0 {
entry:
  %compressed.addr = alloca ptr, align 8
  %compressed_length.addr = alloca i64, align 8
  %reader = alloca %"class.snappy::ByteArraySource", align 8
  %writer = alloca %"class.snappy::SnappyDecompressionValidator", align 8
  store ptr %compressed, ptr %compressed.addr, align 8
  store i64 %compressed_length, ptr %compressed_length.addr, align 8
  %0 = load ptr, ptr %compressed.addr, align 8
  %1 = load i64, ptr %compressed_length.addr, align 8
  call void @_ZN6snappy15ByteArraySourceC2EPKcm(ptr noundef nonnull align 8 dereferenceable(24) %reader, ptr noundef %0, i64 noundef %1)
  call void @_ZN6snappy28SnappyDecompressionValidatorC2Ev(ptr noundef nonnull align 8 dereferenceable(16) %writer)
  %call = call noundef zeroext i1 @_ZN6snappyL18InternalUncompressINS_28SnappyDecompressionValidatorEEEbPNS_6SourceEPT_(ptr noundef %reader, ptr noundef %writer)
  call void @_ZN6snappy15ByteArraySourceD1Ev(ptr noundef nonnull align 8 dereferenceable(24) %reader) #11
  ret i1 %call
}