; Function Attrs: mustprogress nounwind uwtable
define dso_local noundef zeroext i1 @_ZN6snappy23IsValidCompressedBufferEPKcm(ptr noundef %compressed, i64 noundef %compressed_length) local_unnamed_addr #2 {
entry:
  %reader = alloca %"class.snappy::ByteArraySource", align 8
  %writer = alloca %"class.snappy::SnappyDecompressionValidator", align 8
  store ptr getelementptr inbounds ({ [7 x ptr] }, ptr @_ZTVN6snappy15ByteArraySourceE, i64 0, i32 0, i64 2), ptr %reader, align 8
  %ptr_.i = getelementptr inbounds i8, ptr %reader, i64 8
  store ptr %compressed, ptr %ptr_.i, align 8
  %left_.i = getelementptr inbounds i8, ptr %reader, i64 16
  store i64 %compressed_length, ptr %left_.i, align 8
  call void @llvm.memset.p0.i64(ptr noundef nonnull align 8 dereferenceable(16) %writer, i8 0, i64 16, i1 false)
  %call = call fastcc noundef zeroext i1 @_ZN6snappyL18InternalUncompressINS_28SnappyDecompressionValidatorEEEbPNS_6SourceEPT_(ptr noundef nonnull %reader, ptr noundef nonnull %writer)
  call void @_ZN6snappy15ByteArraySourceD1Ev(ptr noundef nonnull align 8 dereferenceable(24) %reader) #19
  ret i1 %call
}